Certificate:
    Data:
        Version: 3 (0x2)
        Serial Number: 8 (0x8)
    Signature Algorithm: sha256WithRSAEncryption
        Issuer: CN=openshift-signer@1553461099
        Validity
            Not Before: Apr 11 11:41:29 2019 GMT
            Not After : Apr 10 11:41:29 2020 GMT
        Subject: C=IT, ST=Rome, L=Rome, O=ACME Corp, CN=ciscogate.svc
        Subject Public Key Info:
            Public Key Algorithm: rsaEncryption
                Public-Key: (2048 bit)
                Modulus:
                    00:9e:4b:20:08:31:d7:36:59:3e:a5:03:5a:59:84:
                    c1:d8:b4:2f:f1:11:bd:9a:7a:91:57:e9:0d:f7:e1:
                    de:86:b6:1e:bb:c4:f8:76:4a:90:30:45:78:1e:8a:
                    16:56:a0:bb:14:a6:a0:eb:07:9e:65:66:f7:99:83:
                    b0:ba:de:f0:1f:06:22:fa:83:a7:91:7c:32:02:5e:
                    bb:a1:fb:15:e8:f8:5f:a8:26:60:2f:f7:c0:d4:da:
                    0f:1e:ab:29:be:9e:a6:5a:92:ce:f5:63:24:3b:fd:
                    08:ba:ca:7a:d7:7c:a5:5d:bd:74:04:0c:66:a0:a9:
                    30:f7:15:2b:f4:f9:ed:42:71:b3:3a:fe:12:58:33:
                    51:dd:e4:eb:2a:7c:ca:d6:27:e4:3b:18:f2:82:8b:
                    47:1d:14:81:de:f0:40:44:b9:12:04:27:1e:a9:08:
                    e4:e2:f9:70:0f:01:96:7e:d8:66:22:a0:8b:08:18:
                    16:32:99:e4:f6:e7:f4:7a:a6:43:ea:10:64:66:8d:
                    e6:9e:d3:69:0f:fb:32:0b:99:32:ba:05:5d:87:68:
                    e1:4e:83:14:5a:1e:e7:09:b0:95:06:e1:a9:c2:7b:
                    71:2e:4a:7f:3e:61:b8:1a:b1:07:64:5e:14:8c:af:
                    55:ff:64:f3:22:ba:1c:48:3d:a4:f6:31:cd:af:71:
                    63:01
                Exponent: 65537 (0x10001)
        X509v3 extensions:
            X509v3 Subject Key Identifier: 
                70:76:DD:5F:CC:E4:21:C9:43:69:2A:BF:52:BB:2E:4C:C2:C1:65:FE
            X509v3 Authority Key Identifier: 
                DirName:/CN=openshift-signer@1553461099
                serial:01

            X509v3 Basic Constraints: 
                CA:FALSE
            X509v3 Key Usage: 
                Digital Signature, Key Encipherment
            X509v3 Subject Alternative Name: 
                DNS:ciscogate.myproject.svc, DNS:*.svc, DNS:ciscogate-myproject.192.168.42.211.nip.io, DNS:*.nip.io, DNS:ciscogate.nip.io
            Netscape Comment: 
                OpenSSL Generated Certificate
    Signature Algorithm: sha256WithRSAEncryption
         9b:61:ae:79:09:8a:94:3f:55:9d:42:1f:2d:e2:e5:a9:f2:df:
         62:62:f8:8a:68:63:42:65:dc:50:89:72:33:4c:fc:aa:c4:72:
         36:1e:16:e9:da:b6:30:66:0f:68:ae:d6:42:a3:14:3e:f4:86:
         17:9a:20:81:b2:a5:71:30:7d:24:00:93:d3:d5:4d:1e:a0:a1:
         08:d8:60:e0:df:45:2d:49:46:50:41:64:0e:85:f4:89:23:f7:
         fa:51:8b:ad:85:0e:7b:79:b9:bb:77:2c:03:f9:16:4c:93:f7:
         2c:66:7e:41:14:2b:6a:a2:37:af:a7:d7:00:53:d0:a1:45:93:
         ca:92:f8:e9:17:7e:6c:3f:bd:f0:b4:c8:f6:2d:46:21:5a:04:
         8c:4a:c9:39:3f:87:12:6f:b5:68:e7:5a:0b:47:62:eb:6f:d3:
         1c:8d:e9:40:e5:9f:73:39:71:a7:be:f7:a5:99:e4:d0:91:83:
         96:4b:23:05:8f:71:69:4d:ae:49:78:02:d4:17:a6:3d:88:24:
         c5:c7:03:f1:fd:74:74:e9:6a:01:f6:f5:10:36:9e:c6:0f:f8:
         63:b3:17:1a:6b:d5:fc:2c:0e:fc:df:58:ef:17:72:00:7c:9f:
         74:ca:93:a3:2d:04:23:d8:ee:2a:c7:20:81:fd:ae:52:1c:ea:
         2b:a0:44:20
-----BEGIN CERTIFICATE-----
MIIEDzCCAvegAwIBAgIBCDANBgkqhkiG9w0BAQsFADAmMSQwIgYDVQQDDBtvcGVu
c2hpZnQtc2lnbmVyQDE1NTM0NjEwOTkwHhcNMTkwNDExMTE0MTI5WhcNMjAwNDEw
MTE0MTI5WjBXMQswCQYDVQQGEwJJVDENMAsGA1UECAwEUm9tZTENMAsGA1UEBwwE
Um9tZTESMBAGA1UECgwJQUNNRSBDb3JwMRYwFAYDVQQDDA1jaXNjb2dhdGUuc3Zj
MIIBIjANBgkqhkiG9w0BAQEFAAOCAQ8AMIIBCgKCAQEAnksgCDHXNlk+pQNaWYTB
2LQv8RG9mnqRV+kN9+HehrYeu8T4dkqQMEV4HooWVqC7FKag6weeZWb3mYOwut7w
HwYi+oOnkXwyAl67ofsV6PhfqCZgL/fA1NoPHqspvp6mWpLO9WMkO/0Iusp613yl
Xb10BAxmoKkw9xUr9PntQnGzOv4SWDNR3eTrKnzK1ifkOxjygotHHRSB3vBARLkS
BCceqQjk4vlwDwGWfthmIqCLCBgWMpnk9uf0eqZD6hBkZo3mntNpD/syC5kyugVd
h2jhToMUWh7nCbCVBuGpwntxLkp/PmG4GrEHZF4UjK9V/2TzIrocSD2k9jHNr3Fj
AQIDAQABo4IBFTCCAREwHQYDVR0OBBYEFHB23V/M5CHJQ2kqv1K7LkzCwWX+MDgG
A1UdIwQxMC+hKqQoMCYxJDAiBgNVBAMMG29wZW5zaGlmdC1zaWduZXJAMTU1MzQ2
MTA5OYIBATAJBgNVHRMEAjAAMAsGA1UdDwQEAwIFoDBwBgNVHREEaTBnghdjaXNj
b2dhdGUubXlwcm9qZWN0LnN2Y4IFKi5zdmOCKWNpc2NvZ2F0ZS1teXByb2plY3Qu
MTkyLjE2OC40Mi4yMTEubmlwLmlvgggqLm5pcC5pb4IQY2lzY29nYXRlLm5pcC5p
bzAsBglghkgBhvhCAQ0EHxYdT3BlblNTTCBHZW5lcmF0ZWQgQ2VydGlmaWNhdGUw
DQYJKoZIhvcNAQELBQADggEBAJthrnkJipQ/VZ1CHy3i5any32Ji+IpoY0Jl3FCJ
cjNM/KrEcjYeFunatjBmD2iu1kKjFD70hheaIIGypXEwfSQAk9PVTR6goQjYYODf
RS1JRlBBZA6F9Ikj9/pRi62FDnt5ubt3LAP5FkyT9yxmfkEUK2qiN6+n1wBT0KFF
k8qS+OkXfmw/vfC0yPYtRiFaBIxKyTk/hxJvtWjnWgtHYutv0xyN6UDln3M5cae+
96WZ5NCRg5ZLIwWPcWlNrkl4AtQXpj2IJMXHA/H9dHTpagH29RA2nsYP+GOzFxpr
1fwsDvzfWO8XcgB8n3TKk6MtBCPY7irHIIH9rlIc6iugRCA=
-----END CERTIFICATE-----
